target datalayout = "e-m:e-p270:32:32-p271:32:32-p272:64:64-i64:64-i128:128-f80:128-n8:16:32:64-S128"
target triple = "x86_64-pc-linux-gnu"

%struct.lua_TValue = type { %union.Value, [1 x i32], i32 }
%union.Value = type { ptr }
%struct.lua_State = type { i8, i8, i8, i8, i8, i8, i8, ptr, ptr, ptr, ptr, ptr, ptr, ptr, ptr, i32, i32, i16, i16, i32, ptr, ptr, ptr, ptr, ptr }
%struct.CallInfo = type { ptr, ptr, ptr, ptr, i32, i32 }

; Function Attrs: mustprogress uwtable
define dso_local void @_Z17lua_rawcheckstackP9lua_Statei(ptr noundef %0, i32 noundef %1) #0 {
  %3 = alloca ptr, align 8
  %4 = alloca i32, align 4
  store ptr %0, ptr %3, align 8, !tbaa !4
  store i32 %1, ptr %4, align 4, !tbaa !9
  %5 = load ptr, ptr %3, align 8, !tbaa !4
  %6 = getelementptr inbounds nuw %struct.lua_State, ptr %5, i32 0, i32 11
  %7 = load ptr, ptr %6, align 8, !tbaa !26
  %8 = load ptr, ptr %3, align 8, !tbaa !4
  %9 = getelementptr inbounds nuw %struct.lua_State, ptr %8, i32 0, i32 7
  %10 = load ptr, ptr %9, align 8, !tbaa !23
  %11 = ptrtoint ptr %7 to i64
  %12 = ptrtoint ptr %10 to i64
  %13 = sub i64 %11, %12
  %14 = load i32, ptr %4, align 4, !tbaa !9
  %15 = mul nsw i32 %14, 16
  %16 = sext i32 %15 to i64
  %17 = icmp sle i64 %13, %16
  br i1 %17, label %18, label %21

18:                                               ; preds = %2
  %19 = load ptr, ptr %3, align 8, !tbaa !4
  %20 = load i32, ptr %4, align 4, !tbaa !9
  call void @_Z14luaD_growstackP9lua_Statei(ptr noundef %19, i32 noundef %20)
  br label %22

21:                                               ; preds = %2
  br label %22

22:                                               ; preds = %21, %18
  %23 = load ptr, ptr %3, align 8, !tbaa !4
  %24 = getelementptr inbounds nuw %struct.lua_State, ptr %23, i32 0, i32 10
  %25 = load ptr, ptr %24, align 8, !tbaa !27
  %26 = getelementptr inbounds nuw %struct.CallInfo, ptr %25, i32 0, i32 2
  %27 = load ptr, ptr %26, align 8, !tbaa !28
  %28 = load ptr, ptr %3, align 8, !tbaa !4
  %29 = getelementptr inbounds nuw %struct.lua_State, ptr %28, i32 0, i32 7
  %30 = load ptr, ptr %29, align 8, !tbaa !23
  %31 = load i32, ptr %4, align 4, !tbaa !9
  %32 = sext i32 %31 to i64
  %33 = getelementptr inbounds %struct.lua_TValue, ptr %30, i64 %32
  %34 = icmp ult ptr %27, %33
  br i1 %34, label %35, label %46

35:                                               ; preds = %22
  %36 = load ptr, ptr %3, align 8, !tbaa !4
  %37 = getelementptr inbounds nuw %struct.lua_State, ptr %36, i32 0, i32 7
  %38 = load ptr, ptr %37, align 8, !tbaa !23
  %39 = load i32, ptr %4, align 4, !tbaa !9
  %40 = sext i32 %39 to i64
  %41 = getelementptr inbounds %struct.lua_TValue, ptr %38, i64 %40
  %42 = load ptr, ptr %3, align 8, !tbaa !4
  %43 = getelementptr inbounds nuw %struct.lua_State, ptr %42, i32 0, i32 10
  %44 = load ptr, ptr %43, align 8, !tbaa !27
  %45 = getelementptr inbounds nuw %struct.CallInfo, ptr %44, i32 0, i32 2
  store ptr %41, ptr %45, align 8, !tbaa !28
  br label %46

46:                                               ; preds = %35, %22
  ret void
}