; Function Attrs: mustprogress uwtable
define dso_local void @_Z17lua_rawcheckstackP9lua_Statei(ptr noundef %0, i32 noundef %1) local_unnamed_addr #3 {
  %3 = getelementptr inbounds nuw i8, ptr %0, i64 40
  %4 = load ptr, ptr %3, align 8, !tbaa !23
  %5 = getelementptr inbounds nuw i8, ptr %0, i64 8
  %6 = load ptr, ptr %5, align 8, !tbaa !19
  %7 = ptrtoint ptr %4 to i64
  %8 = ptrtoint ptr %6 to i64
  %9 = sub i64 %7, %8
  %10 = shl nsw i32 %1, 4
  %11 = sext i32 %10 to i64
  %.not = icmp sgt i64 %9, %11
  br i1 %.not, label %13, label %12

12:                                               ; preds = %2
  tail call void @_Z14luaD_growstackP9lua_Statei(ptr noundef nonnull %0, i32 noundef %1)
  %.pre = load ptr, ptr %5, align 8, !tbaa !19
  br label %13

13:                                               ; preds = %2, %12
  %14 = phi ptr [ %6, %2 ], [ %.pre, %12 ]
  %15 = getelementptr inbounds nuw i8, ptr %0, i64 32
  %16 = load ptr, ptr %15, align 8, !tbaa !24
  %17 = getelementptr inbounds nuw i8, ptr %16, i64 16
  %18 = load ptr, ptr %17, align 8, !tbaa !25
  %19 = sext i32 %1 to i64
  %20 = getelementptr inbounds %struct.lua_TValue, ptr %14, i64 %19
  %21 = icmp ult ptr %18, %20
  br i1 %21, label %22, label %23

22:                                               ; preds = %13
  store ptr %20, ptr %17, align 8, !tbaa !25
  br label %23

23:                                               ; preds = %22, %13
  ret void
}